target datalayout = "e-m:e-p270:32:32-p271:32:32-p272:64:64-i64:64-i128:128-f80:128-n8:16:32:64-S128"
target triple = "x86_64-pc-linux-gnu"

%class.MemRegion = type { ptr, i64 }
%class.SerialHeap = type { %class.CollectedHeap, ptr, ptr, ptr, ptr, ptr, ptr, ptr, ptr, ptr, ptr, ptr }
%class.CollectedHeap = type { ptr, ptr, i64, i64, %class.SoftRefPolicy, %class.MemRegion, i8, i64, i32, i32, i32, i32, ptr, ptr }
%class.SoftRefPolicy = type { i8, i8 }

; Function Attrs: mustprogress nounwind uwtable
define hidden void @_ZN10SerialHeap14object_iterateEP13ObjectClosure(ptr noundef nonnull align 8 dereferenceable(192) %0, ptr noundef %1) unnamed_addr #1 align 2 {
  %3 = alloca ptr, align 8
  %4 = alloca ptr, align 8
  store ptr %0, ptr %3, align 8
  store ptr %1, ptr %4, align 8
  %5 = load ptr, ptr %3, align 8
  %6 = getelementptr inbounds %class.SerialHeap, ptr %5, i32 0, i32 1
  %7 = load ptr, ptr %6, align 8
  %8 = load ptr, ptr %4, align 8
  call void @_ZN16DefNewGeneration14object_iterateEP13ObjectClosure(ptr noundef nonnull align 8 dereferenceable(744) %7, ptr noundef %8)
  %9 = getelementptr inbounds %class.SerialHeap, ptr %5, i32 0, i32 2
  %10 = load ptr, ptr %9, align 8
  %11 = load ptr, ptr %4, align 8
  call void @_ZN17TenuredGeneration14object_iterateEP13ObjectClosure(ptr noundef nonnull align 8 dereferenceable(248) %10, ptr noundef %11)
  ret void
}