; Function Attrs: mustprogress nounwind uwtable
define hidden void @_ZN10SerialHeap14object_iterateEP13ObjectClosure(ptr nocapture noundef nonnull readonly align 8 dereferenceable(192) %0, ptr noundef %1) unnamed_addr #0 align 2 {
  %3 = getelementptr inbounds i8, ptr %0, i64 104
  %4 = load ptr, ptr %3, align 8
  tail call void @_ZN16DefNewGeneration14object_iterateEP13ObjectClosure(ptr noundef nonnull align 8 dereferenceable(744) %4, ptr noundef %1) #16
  %5 = getelementptr inbounds i8, ptr %0, i64 112
  %6 = load ptr, ptr %5, align 8
  tail call void @_ZN17TenuredGeneration14object_iterateEP13ObjectClosure(ptr noundef nonnull align 8 dereferenceable(248) %6, ptr noundef %1) #16
  ret void
}